; Function Attrs: nounwind uwtable
define ptr @l_panic___at_Lean_Linter_UnusedVariables_collectReferences_go___spec__22(ptr noundef %0, i8 noundef zeroext %1, ptr noundef %2, ptr noundef %3) local_unnamed_addr #1 {
  %5 = load ptr, ptr @l_panic___at_Lean_Linter_UnusedVariables_collectReferences_go___spec__22___closed__4, align 8, !tbaa !4
  %6 = tail call ptr @lean_panic_fn(ptr noundef %5, ptr noundef %0) #7
  %7 = zext i8 %1 to i64
  %8 = shl nuw nsw i64 %7, 1
  %9 = or disjoint i64 %8, 1
  %10 = inttoptr i64 %9 to ptr
  %11 = tail call ptr @lean_apply_3(ptr noundef %6, ptr noundef nonnull %10, ptr noundef %2, ptr noundef %3) #7
  ret ptr %11
}